; Function Attrs: mustprogress nounwind uwtable
define dso_local void @_ZN5clang13ASTDeclWriter38VisitImplicitConceptSpecializationDeclEPNS_33ImplicitConceptSpecializationDeclE(ptr noundef nonnull align 8 dereferenceable(241) %0, ptr noundef %1) local_unnamed_addr #0 align 2 {
  %3 = getelementptr inbounds nuw i8, ptr %0, i64 16
  %.ptr = getelementptr inbounds nuw i8, ptr %1, i64 40
  %4 = getelementptr inbounds nuw i8, ptr %1, i64 36
  %5 = load i32, ptr %4, align 4
  %6 = zext i32 %5 to i64
  %7 = getelementptr inbounds nuw i8, ptr %0, i64 32
  %8 = load ptr, ptr %7, align 8
  %9 = tail call noundef i64 @_ZNK4llvm15SmallVectorBaseIjE4sizeEv(ptr noundef nonnull align 8 dereferenceable(16) %8) #19
  %10 = add i64 %9, 1
  %11 = tail call noundef i64 @_ZNK4llvm15SmallVectorBaseIjE8capacityEv(ptr noundef nonnull align 8 dereferenceable(16) %8) #19
  %.not.i.i.i.i = icmp ugt i64 %10, %11
  br i1 %.not.i.i.i.i, label %12, label %_ZN5clang15ASTRecordWriter9push_backEm.exit

12:                                               ; preds = %2
  %13 = getelementptr inbounds nuw i8, ptr %8, i64 16
  tail call void @_ZN4llvm15SmallVectorBaseIjE8grow_podEPvmm(ptr noundef nonnull align 8 dereferenceable(16) %8, ptr noundef nonnull %13, i64 noundef %10, i64 noundef 8) #19
  br label %_ZN5clang15ASTRecordWriter9push_backEm.exit

_ZN5clang15ASTRecordWriter9push_backEm.exit:      ; preds = %2, %12
  %14 = load ptr, ptr %8, align 8
  %15 = tail call noundef i64 @_ZNK4llvm15SmallVectorBaseIjE4sizeEv(ptr noundef nonnull align 8 dereferenceable(16) %8) #19
  %16 = getelementptr inbounds i64, ptr %14, i64 %15
  store i64 %6, ptr %16, align 1
  %17 = tail call noundef i64 @_ZNK4llvm15SmallVectorBaseIjE4sizeEv(ptr noundef nonnull align 8 dereferenceable(16) %8) #19
  %18 = add i64 %17, 1
  tail call void @_ZN4llvm15SmallVectorBaseIjE8set_sizeEm(ptr noundef nonnull align 8 dereferenceable(16) %8, i64 noundef %18) #19
  tail call void @_ZN5clang13ASTDeclWriter9VisitDeclEPNS_4DeclE(ptr noundef nonnull align 8 dereferenceable(241) %0, ptr noundef nonnull %1)
  %19 = load i32, ptr %4, align 4
  %20 = zext i32 %19 to i64
  %.idx = mul nuw nsw i64 %20, 24
  %21 = getelementptr inbounds nuw i8, ptr %1, i64 %.idx
  %.ptr17 = getelementptr inbounds nuw i8, ptr %21, i64 40
  %.not15 = icmp eq i32 %19, 0
  br i1 %.not15, label %._crit_edge, label %.lr.ph

.lr.ph:                                           ; preds = %_ZN5clang15ASTRecordWriter9push_backEm.exit, %.lr.ph
  %.016 = phi ptr [ %22, %.lr.ph ], [ %.ptr, %_ZN5clang15ASTRecordWriter9push_backEm.exit ]
  tail call void @_ZN5clang13serialization15BasicWriterBaseINS_15ASTRecordWriterEE21writeTemplateArgumentENS_16TemplateArgumentE(ptr noundef nonnull align 8 dereferenceable(216) %3, ptr noundef nonnull byval(%"class.clang::TemplateArgument") align 8 %.016)
  %22 = getelementptr inbounds nuw i8, ptr %.016, i64 24
  %.not = icmp eq ptr %22, %.ptr17
  br i1 %.not, label %._crit_edge, label %.lr.ph

._crit_edge:                                      ; preds = %.lr.ph, %_ZN5clang15ASTRecordWriter9push_backEm.exit
  %23 = getelementptr inbounds nuw i8, ptr %0, i64 232
  store i32 139, ptr %23, align 8
  ret void
}